; Function Attrs: nofree norecurse nosync nounwind memory(argmem: read) uwtable
define i32 @ff_rms(ptr noundef readonly captures(none) %0) local_unnamed_addr #8 {
  br label %2

2:                                                ; preds = %1, %._crit_edge
  %indvars.iv = phi i64 [ 0, %1 ], [ %indvars.iv.next, %._crit_edge ]
  %.026 = phi i32 [ 10, %1 ], [ %.1.lcssa, %._crit_edge ]
  %.01325 = phi i32 [ 65536, %1 ], [ %.114.lcssa, %._crit_edge ]
  %3 = getelementptr inbounds nuw i32, ptr %0, i64 %indvars.iv
  %4 = load i32, ptr %3, align 4, !tbaa !8
  %5 = mul nsw i32 %4, %4
  %6 = sub nsw i32 16777216, %5
  %7 = ashr i32 %6, 12
  %8 = mul i32 %7, %.01325
  %9 = icmp ult i32 %8, 4096
  br i1 %9, label %.loopexit, label %.preheader

.preheader:                                       ; preds = %2
  %10 = lshr i32 %8, 12
  %11 = icmp ult i32 %8, 67108864
  br i1 %11, label %.lr.ph, label %._crit_edge

.lr.ph:                                           ; preds = %.preheader, %.lr.ph
  %.122 = phi i32 [ %12, %.lr.ph ], [ %.026, %.preheader ]
  %.11421 = phi i32 [ %13, %.lr.ph ], [ %10, %.preheader ]
  %12 = add nsw i32 %.122, 1
  %13 = shl nuw nsw i32 %.11421, 2
  %14 = icmp samesign ult i32 %.11421, 4096
  br i1 %14, label %.lr.ph, label %._crit_edge, !llvm.loop !20

._crit_edge:                                      ; preds = %.lr.ph, %.preheader
  %.114.lcssa = phi i32 [ %10, %.preheader ], [ %13, %.lr.ph ]
  %.1.lcssa = phi i32 [ %.026, %.preheader ], [ %12, %.lr.ph ]
  %indvars.iv.next = add nuw nsw i64 %indvars.iv, 1
  %exitcond.not = icmp eq i64 %indvars.iv.next, 10
  br i1 %exitcond.not, label %.lr.ph.i, label %2, !llvm.loop !21

.lr.ph.i:                                         ; preds = %._crit_edge, %.lr.ph.i
  %.07.i = phi i32 [ %15, %.lr.ph.i ], [ 2, %._crit_edge ]
  %.056.i = phi i32 [ %16, %.lr.ph.i ], [ %.114.lcssa, %._crit_edge ]
  %15 = add nuw nsw i32 %.07.i, 1
  %16 = lshr i32 %.056.i, 2
  %17 = icmp samesign ugt i32 %.056.i, 16383
  br i1 %17, label %.lr.ph.i, label %._crit_edge.i, !llvm.loop !18

._crit_edge.i:                                    ; preds = %.lr.ph.i
  %18 = icmp samesign ult i32 %.056.i, 4
  br i1 %18, label %19, label %24

19:                                               ; preds = %._crit_edge.i
  %20 = load i8, ptr getelementptr inbounds nuw (i8, ptr @ff_sqrt_tab, i64 1), align 1, !tbaa !19
  %21 = zext i8 %20 to i32
  %22 = add nsw i32 %21, -1
  %23 = ashr i32 %22, 4
  br label %ff_t_sqrt.exit

24:                                               ; preds = %._crit_edge.i
  %25 = shl nuw i32 %16, 20
  %.not.i.i.i = icmp samesign ult i32 %.056.i, 64
  %spec.select.i.v.i.i = select i1 %.not.i.i.i, i32 16, i32 24
  %spec.select.i.i.i = lshr i32 %25, %spec.select.i.v.i.i
  %spec.select7.i.i.i = select i1 %.not.i.i.i, i32 0, i32 8
  %26 = zext nneg i32 %spec.select.i.i.i to i64
  %27 = getelementptr inbounds nuw [256 x i8], ptr @ff_log2_tab, i64 0, i64 %26
  %28 = load i8, ptr %27, align 1, !tbaa !19
  %29 = zext i8 %28 to i32
  %30 = add nuw nsw i32 %spec.select7.i.i.i, %29
  %31 = lshr i32 %30, 1
  %32 = add nuw nsw i32 %31, 2
  %33 = lshr i32 %25, %32
  %34 = add nuw nsw i32 %31, 8
  %35 = lshr i32 %33, %34
  %36 = zext nneg i32 %35 to i64
  %37 = getelementptr inbounds nuw [256 x i8], ptr @ff_sqrt_tab, i64 0, i64 %36
  %38 = load i8, ptr %37, align 1, !tbaa !19
  %39 = zext i8 %38 to i32
  %40 = zext nneg i32 %33 to i64
  %41 = zext i8 %38 to i64
  %42 = getelementptr inbounds nuw [257 x i32], ptr @ff_inverse, i64 0, i64 %41
  %43 = load i32, ptr %42, align 4, !tbaa !8
  %44 = zext i32 %43 to i64
  %45 = mul nuw nsw i64 %40, %44
  %46 = lshr i64 %45, 32
  %47 = trunc nuw nsw i64 %46 to i32
  %48 = shl i32 %39, %31
  %49 = add i32 %48, %47
  %50 = mul i32 %49, %49
  %51 = icmp ult i32 %25, %50
  %.neg.i.i = sext i1 %51 to i32
  %52 = add i32 %49, %.neg.i.i
  br label %ff_t_sqrt.exit

ff_t_sqrt.exit:                                   ; preds = %19, %24
  %.0.i.i = phi i32 [ %23, %19 ], [ %52, %24 ]
  %53 = shl i32 %.0.i.i, %15
  %54 = ashr i32 %53, %.1.lcssa
  br label %.loopexit

.loopexit:                                        ; preds = %2, %ff_t_sqrt.exit
  %.016 = phi i32 [ %54, %ff_t_sqrt.exit ], [ 0, %2 ]
  ret i32 %.016
}